; Function Attrs: mustprogress nofree norecurse nosync nounwind memory(read, argmem: readwrite, inaccessiblemem: none) uwtable
define hidden noundef zeroext i1 @_ZN6Assimp3ASE6Parser15SkipToNextTokenEv(ptr noundef nonnull align 8 captures(none) dereferenceable(188) %0) local_unnamed_addr #8 align 2 {
  %2 = getelementptr inbounds nuw i8, ptr %0, i64 8
  %3 = load ptr, ptr %2, align 8
  %.promoted = load ptr, ptr %0, align 8
  %4 = icmp eq ptr %.promoted, %3
  br i1 %4, label %.loopexit, label %.lr.ph

.lr.ph:                                           ; preds = %1
  %5 = getelementptr inbounds nuw i8, ptr %0, i64 180
  %6 = getelementptr inbounds nuw i8, ptr %0, i64 160
  %.promoted24 = load i8, ptr %5, align 4
  %.promoted25 = load i32, ptr %6, align 8
  br label %7

7:                                                ; preds = %.lr.ph, %17
  %8 = phi i32 [ %.promoted25, %.lr.ph ], [ %16, %17 ]
  %9 = phi i8 [ %.promoted24, %.lr.ph ], [ %storemerge, %17 ]
  %10 = phi ptr [ %.promoted, %.lr.ph ], [ %18, %17 ]
  %11 = load i8, ptr %10, align 1
  switch i8 %11, label %_ZN6Assimp9IsLineEndIcEEbT_.exit [
    i8 13, label %12
    i8 10, label %12
    i8 0, label %12
    i8 12, label %12
  ]

12:                                               ; preds = %7, %7, %7, %7
  %13 = trunc nuw i8 %9 to i1
  br i1 %13, label %_ZN6Assimp9IsLineEndIcEEbT_.exit, label %14

14:                                               ; preds = %12
  %15 = add i32 %8, 1
  store i32 %15, ptr %6, align 8
  br label %_ZN6Assimp9IsLineEndIcEEbT_.exit

_ZN6Assimp9IsLineEndIcEEbT_.exit:                 ; preds = %12, %7, %14
  %storemerge = phi i8 [ 1, %14 ], [ 0, %7 ], [ 0, %12 ]
  %16 = phi i32 [ %15, %14 ], [ %8, %7 ], [ %8, %12 ]
  store i8 %storemerge, ptr %5, align 4
  switch i8 %11, label %17 [
    i8 125, label %.loopexit.loopexit
    i8 123, label %.loopexit.loopexit
    i8 42, label %.loopexit.loopexit
    i8 0, label %.loopexit
  ]

17:                                               ; preds = %_ZN6Assimp9IsLineEndIcEEbT_.exit
  %18 = getelementptr inbounds nuw i8, ptr %10, i64 1
  store ptr %18, ptr %0, align 8
  %19 = icmp eq ptr %18, %3
  br i1 %19, label %.loopexit, label %7

.loopexit.loopexit:                               ; preds = %_ZN6Assimp9IsLineEndIcEEbT_.exit, %_ZN6Assimp9IsLineEndIcEEbT_.exit, %_ZN6Assimp9IsLineEndIcEEbT_.exit
  br label %.loopexit

.loopexit:                                        ; preds = %17, %_ZN6Assimp9IsLineEndIcEEbT_.exit, %.loopexit.loopexit, %1
  %.1.ph = phi i1 [ false, %1 ], [ true, %.loopexit.loopexit ], [ false, %_ZN6Assimp9IsLineEndIcEEbT_.exit ], [ false, %17 ]
  ret i1 %.1.ph
}